; Function Attrs: mustprogress nounwind uwtable
define hidden void @_ZN15KlassInfoBucket7iterateEP16KlassInfoClosure(ptr nocapture noundef nonnull readonly align 8 dereferenceable(8) %0, ptr noundef %1) local_unnamed_addr #0 align 2 {
  %.05 = load ptr, ptr %0, align 8
  %.not6 = icmp eq ptr %.05, null
  br i1 %.not6, label %._crit_edge, label %.lr.ph

.lr.ph:                                           ; preds = %2, %.lr.ph
  %.07 = phi ptr [ %.0, %.lr.ph ], [ %.05, %2 ]
  %3 = load ptr, ptr %1, align 8
  %4 = load ptr, ptr %3, align 8
  tail call void %4(ptr noundef nonnull align 8 dereferenceable(8) %1, ptr noundef nonnull %.07) #15
  %.0 = load ptr, ptr %.07, align 8
  %.not = icmp eq ptr %.0, null
  br i1 %.not, label %._crit_edge, label %.lr.ph, !llvm.loop !8

._crit_edge:                                      ; preds = %.lr.ph, %2
  ret void
}